target datalayout = "e-m:e-p270:32:32-p271:32:32-p272:64:64-i64:64-i128:128-f80:128-n8:16:32:64-S128"
target triple = "x86_64-pc-linux-gnu"

%"class.bit_matrix::row" = type { ptr, ptr }
%class.bit_matrix = type { %class.region, i32, i32, %class.ptr_vector }
%class.region = type { ptr, ptr, ptr, ptr, ptr }
%class.ptr_vector = type { %class.vector }
%class.vector = type { ptr }

; Function Attrs: mustprogress nounwind uwtable
define hidden noundef nonnull align 8 dereferenceable(16) ptr @_ZN10bit_matrix3rowpLERKS0_(ptr noundef nonnull align 8 dereferenceable(16) %0, ptr noundef nonnull align 8 dereferenceable(16) %1) #5 align 2 {
  %3 = alloca ptr, align 8
  %4 = alloca ptr, align 8
  %5 = alloca i32, align 4
  store ptr %0, ptr %3, align 8, !tbaa !3
  store ptr %1, ptr %4, align 8, !tbaa !3
  %6 = load ptr, ptr %3, align 8
  call void @llvm.lifetime.start.p0(i64 4, ptr %5) #3
  store i32 0, ptr %5, align 4, !tbaa !40
  br label %7

7:                                                ; preds = %30, %2
  %8 = load i32, ptr %5, align 4, !tbaa !40
  %9 = getelementptr inbounds nuw %"class.bit_matrix::row", ptr %6, i32 0, i32 0
  %10 = load ptr, ptr %9, align 8, !tbaa !19
  %11 = getelementptr inbounds nuw %class.bit_matrix, ptr %10, i32 0, i32 2
  %12 = load i32, ptr %11, align 4, !tbaa !48
  %13 = icmp ult i32 %8, %12
  br i1 %13, label %15, label %14

14:                                               ; preds = %7
  call void @llvm.lifetime.end.p0(i64 4, ptr %5) #3
  br label %33

15:                                               ; preds = %7
  %16 = load ptr, ptr %4, align 8, !tbaa !3
  %17 = getelementptr inbounds nuw %"class.bit_matrix::row", ptr %16, i32 0, i32 1
  %18 = load ptr, ptr %17, align 8, !tbaa !41
  %19 = load i32, ptr %5, align 4, !tbaa !40
  %20 = zext i32 %19 to i64
  %21 = getelementptr inbounds nuw i64, ptr %18, i64 %20
  %22 = load i64, ptr %21, align 8, !tbaa !35
  %23 = getelementptr inbounds nuw %"class.bit_matrix::row", ptr %6, i32 0, i32 1
  %24 = load ptr, ptr %23, align 8, !tbaa !41
  %25 = load i32, ptr %5, align 4, !tbaa !40
  %26 = zext i32 %25 to i64
  %27 = getelementptr inbounds nuw i64, ptr %24, i64 %26
  %28 = load i64, ptr %27, align 8, !tbaa !35
  %29 = xor i64 %28, %22
  store i64 %29, ptr %27, align 8, !tbaa !35
  br label %30

30:                                               ; preds = %15
  %31 = load i32, ptr %5, align 4, !tbaa !40
  %32 = add i32 %31, 1
  store i32 %32, ptr %5, align 4, !tbaa !40
  br label %7, !llvm.loop !55

33:                                               ; preds = %14
  ret ptr %6
}